ccollections
defaultdict
p0
(tRp1
S'Find Your Love'
p2
(I6
I4
F96.081
F0.814
F-5.914
F0.623
F0.598
F0.0246
F0.167
tp3
sS'Get Lucky'
p4
(I6
I4
F116.047
F0.865
F-8.966
F0.794
F0.811
F0.0426
F0.038
tp5
sS'Lost Boy'
p6
(I7
I4
F123.994
F0.352
F-15.099
F0.71
F0.0565
F0.965
F0.0534
tp7
sS"Don't Let Me Down"
p8
(I11
I4
F159.803
F0.419
F-5.094
F0.532
F0.869
F0.157
F0.172
tp9
sS'Everybody Talks'
p10
(I8
I4
F154.955
F0.727
F-3.858
F0.478
F0.915
F0.00584
F0.0652
tp11
sS'Not Afraid'
p12
(I0
I5
F114.661
F0.671
F-1.097
F0.851
F0.95
F0.513
F0.269
tp13
sS"Haven't Met You Yet"
p14
(I8
I4
F122.58
F0.803
F-4.808
F0.615
F0.733
F0.152
F0.0335
tp15
sS'Lean On'
p16
(I7
I4
F98.007
F0.271
F-3.081
F0.723
F0.809
F0.00346
F0.0625
tp17
sS'Happy'
p18
(I2
I4
F83.096
F0.38
F-9.377
F0.66
F0.383
F0.381
F0.0304
tp19
sS"Don't You Worry Child"
p20
(I11
I4
F129.042
F0.441
F-3.145
F0.612
F0.84
F0.112
F0.0509
tp21
sS"I Won't Give Up"
p22
(I4
I3
F136.703
F0.144
F-10.058
F0.585
F0.303
F0.694
F0.0398
tp23
sS'All of Me'
p24
(I8
I4
F119.93
F0.331
F-7.064
F0.422
F0.264
F0.922
F0.0322
tp25
sS'Break Free'
p26
(I7
I4
F129.956
F0.254
F-5.324
F0.687
F0.702
F0.0064
F0.0455
tp27
sS'Too Close'
p28
(I11
I4
F126.07
F0.289
F-4.16
F0.579
F0.731
F0.0137
F0.0452
tp29
sS'Ni**as In Paris'
p30
(I1
I5
F139.998
F0.285
F-5.661
F0.667
F0.859
F0.0447
F0.0672
tp31
sS'Somebody That I Used to Know'
p32
(I0
I4
F129.063
F0.75
F-6.972
F0.857
F0.517
F0.565
F0.0384
tp33
sS'Carry Out'
p34
(I10
I4
F95.988
F0.265
F-6.764
F0.478
F0.569
F0.117
F0.148
tp35
sS'Young, Wild & Free'
p36
(I0
I4
F95.078
F0.557
F-6.425
F0.715
F0.655
F0.0525
F0.137
tp37
sS'Mercy'
p38
(I11
I4
F148.294
F0.38
F-4.901
F0.568
F0.686
F0.133
F0.0903
tp39
sS'Just Like Fire'
p40
(I7
I4
F162.958
F0.488
F-5.921
F0.632
F0.701
F0.0114
F0.146
tp41
sS'679'
p42
(I7
I4
F190.05
F0.601
F-5.738
F0.618
F0.717
F0.00256
F0.318
tp43
sS'Black Widow ft. Rita Ora'
p44
(I3
I4
F164.028
F0.714
F-6.047
F0.729
F0.912
F0.912
F0.0602
tp45
sS'H.O.L.Y.'
p46
(I7
I4
F78.003
F0.522
F-3.954
F0.525
F0.685
F0.385
F0.0351
tp47
sS'Fire Flies'
p48
(I7
I4
F137.177
F0.0397
F-21.771
F0.154
F0.241
F0.556
F0.0432
tp49
sS'Pumped Up Kicks'
p50
(I5
I4
F127.975
F0.963
F-5.849
F0.733
F0.71
F0.145
F0.0292
tp51
sS'Breakeven'
p52
(I10
I4
F94.023
F0.518
F-4.51
F0.63
F0.698
F0.173
F0.0244
tp53
sS'Summer'
p54
(I1
I4
F146.316
F0.0568
F-7.698
F0.592
F0.455
F0.00322
F0.393
tp55
sS'Turn Down For What'
p56
(I1
I4
F100.014
F0.0953
F-4.1
F0.818
F0.799
F0.00107
F0.156
tp57
sS'Black and Yellow'
p58
(I2
I4
F164.02
F0.53
F-4.524
F0.684
F0.834
F0.0646
F0.0675
tp59
sS'Telephone'
p60
(I2
I4
F123.009
F0.466
F-6.142
F0.732
F0.772
F0.194
F0.267
tp61
sS'Stay With Me'
p62
(I0
I4
F85.014
F0.174
F-6.517
F0.479
F0.419
F0.568
F0.0389
tp63
sS'Say Something'
p64
(I2
I3
F141.284
F0.0796
F-8.822
F0.407
F0.147
F0.857
F0.0355
tp65
sS'Suit & Tie'
p66
(I11
I4
F101.985
F0.361
F-3.799
F0.795
F0.596
F0.103
F0.219
tp67
sS'Chandelier'
p68
(I1
I5
F117.089
F0.574
F-2.88
F0.399
F0.787
F0.0197
F0.0499
tp69
sS'Super Bass'
p70
(I11
I4
F127.01
F0.67
F-4.288
F0.727
F0.866
F0.282
F0.185
tp71
sS'Cups'
p72
(I0
I4
F129.966
F0.735
F-8.866
F0.886
F0.448
F0.0582
F0.112
tp73
sS'Come & Get It'
p74
(I7
I4
F80.142
F0.576
F-4.125
F0.523
F0.792
F0.00946
F0.0512
tp75
sS'Panda'
p76
(I10
I4
F145.22
F0.245
F-5.522
F0.72
F0.748
F0.0235
F0.393
tp77
sS'Timber'
p78
(I11
I4
F129.992
F0.792
F-4.087
F0.581
F0.963
F0.0295
F0.0981
tp79
sS'Give Me Everything'
p80
(I8
I4
F129.023
F0.533
F-3.206
F0.671
F0.939
F0.192
F0.161
tp81
sS'I Love It'
p82
(I8
I4
F125.927
F0.824
F-2.663
F0.714
F0.905
F0.00855
F0.0289
tp83
sS'Blurred Lines'
p84
(I7
I4
F120.002
F0.825
F-4.762
F0.862
F0.608
F0.00373
F0.0402
tp85
sS'Good Time'
p86
(I7
I4
F94.605
F0.652
F-7.844
F0.475
F0.432
F0.183
F0.0302
tp87
sS'Bailando'
p88
(I7
I4
F90.937
F0.954
F-3.499
F0.713
F0.783
F0.0467
F0.124
tp89
sS"Can't Hold Us"
p90
(I2
I4
F146.078
F0.85
F-4.457
F0.641
F0.922
F0.0291
F0.0786
tp91
sS'Best Day of My Life'
p92
(I2
I4
F100.016
F0.53
F-2.378
F0.673
F0.902
F0.0629
F0.0347
tp93
sS'Dynamite'
p94
(I9
I4
F105.055
F0.723
I-6
F0.811
F0.801
F0.0548
F0.0802
tp95
sS'Let Her Go'
p96
(I7
I4
F74.897
F0.239
F-7.346
F0.479
F0.545
F0.365
F0.0688
tp97
sS'Fight Song'
p98
(I7
I4
F175.924
F0.328
F-4.987
F0.564
F0.714
F0.0549
F0.129
tp99
sS'Alejandro'
p100
(I11
I4
F98.986
F0.352
F-6.61
F0.632
F0.789
F0.00043
F0.0557
tp101
sS'DJ Got Us Fallin In Love'
p102
(I7
I4
F119.932
F0.67
F-2.85
F0.666
F0.878
F0.03
F0.0973
tp103
sS'Close'
p104
(I6
I4
F124.012
F0.407
F-5.397
F0.667
F0.624
F0.258
F0.0698
tp105
sS'Fuckin Perfect'
p106
(I2
I4
F182.015
F0.547
F-5.066
F0.44
F0.838
F0.00599
F0.0392
tp107
sS'Locked Away'
p108
(I1
I5
F121.928
F0.558
F-5.696
F0.508
F0.677
F0.328
F0.0656
tp109
sS'I Got A Feelin'
p110
(I2
I4
F112.117
F0.677
F-4.127
F0.638
F0.756
F0.477
F0.0278
tp111
sS"Don't Mind"
p112
(I1
I4
F100.017
F0.35
F-8.053
F0.728
F0.563
F0.621
F0.134
tp113
sS'The Edge of Glory'
p114
(I9
I4
F127.973
F0.393
F-6.433
F0.583
F0.77
F0.000391
F0.0401
tp115
sS'Your Love Is My Drug'
p116
(I1
I4
F120.044
F0.767
F-3.876
F0.829
F0.607
F0.0049
F0.0897
tp117
sS'Photograph'
p118
(I4
I4
F107.989
F0.198
F-10.48
F0.614
F0.379
F0.607
F0.0476
tp119
sS'Sexy Chick'
p120
(I11
I4
F129.999
F0.744
F-4.99
F0.811
F0.654
F0.055
F0.0508
tp121
sS'Thrift Shop'
p122
(I6
I4
F94.992
F0.661
F-6.985
F0.781
F0.526
F0.0619
F0.293
tp123
sS'All About That Bass'
p124
(I9
I4
F134.064
F0.962
F-3.724
F0.811
F0.879
F0.0476
F0.0514
tp125
sS'Moves Like Jagger'
p126
(I11
I4
F128.03
F0.602
F-4.471
F0.714
F0.748
F0.0106
F0.0546
tp127
sS'Work'
p128
(I11
I4
F91.296
F0.537
F-6.294
F0.667
F0.538
F0.0644
F0.0953
tp129
sS'Too Good'
p130
(I7
I4
F117.984
F0.391
F-7.79
F0.804
F0.65
F0.0606
F0.118
tp131
sS'As Long As You Love Me'
p132
(I3
I4
F135.989
F0.452
F-8.571
F0.678
F0.346
F0.848
F0.0345
tp133
sS"Can't Feel My Face"
p134
(I9
I4
F107.972
F0.617
F-5.407
F0.711
F0.783
F0.109
F0.0423
tp135
sS'Habits'
p136
(I6
I5
F138.293
F0.296
F-6.419
F0.311
F0.565
F0.000542
F0.0405
tp137
sS'Bang Bang'
p138
(I0
I4
F150.058
F0.744
F-3.423
F0.703
F0.789
F0.292
F0.0928
tp139
sS'Break Your Heart'
p140
(I8
I4
F122.025
F0.62
F-4.759
F0.663
F0.892
F0.00232
F0.0287
tp141
sS'Holy Grail'
p142
(I2
I4
F145.075
F0.15
F-6.964
F0.685
F0.539
F0.0635
F0.0908
tp143
sS'Jealous'
p144
(I1
I3
F128.532
F0.0918
F-8.948
F0.435
F0.155
F0.873
F0.046
tp145
sS'Wake Me Up'
p146
(I2
I4
F124.102
F0.609
F-5.659
F0.518
F0.784
F0.00346
F0.0524
tp147
sS'Tik Tok'
p148
(I2
I4
F120.032
F0.719
F-2.741
F0.755
F0.832
F0.0746
F0.116
tp149
sS'Me, Myself & I'
p150
(I0
I4
F111.996
F0.389
F-6.524
F0.757
F0.672
F0.0186
F0.0955
tp151
sS'Love me'
p152
(I8
I4
F100.023
F0.147
F-5.311
F0.652
F0.713
F0.0771
F0.0368
tp153
sS'Harlem Shake'
p154
(I0
I4
F137.825
F0.281
F-5.151
F0.452
F0.794
F0.0111
F0.0483
tp155
sS'Turn Me On'
p156
(I1
I4
F102.924
F0.289
F-3.167
F0.681
F0.774
F0.0992
F0.0787
tp157
sS'Worth It'
p158
(I8
I4
F99.987
F0.555
F-3.865
F0.884
F0.765
F0.063
F0.0882
tp159
sS'The Show Goes On'
p160
(I7
I4
F143.067
F0.648
F-3.839
F0.591
F0.889
F0.0189
F0.115
tp161
sS'Replay'
p162
(I9
I4
F91.031
F0.189
F-6.323
F0.706
F0.751
F0.173
F0.0708
tp163
sS'Cheerleader'
p164
(I4
I4
F118.016
F0.598
F-6.117
F0.777
F0.663
F0.146
F0.0305
tp165
sS'My Songs Know What You Did In The Dark'
p166
(I9
I4
F152.011
F0.562
F-4.374
F0.561
F0.927
F0.0313
F0.0619
tp167
sS'Stitches'
p168
(I10
I4
F74.986
F0.745
F-6.605
F0.733
F0.745
F0.0187
F0.0961
tp169
sS'Till the World Ends'
p170
(I8
I4
F131.951
F0.475
F-5.747
F0.693
F0.705
F0.0228
F0.0665
tp171
sS"Honey, I'm Good"
p172
(I9
I4
F122.025
F0.597
F-6.406
F0.753
F0.796
F0.0378
F0.0576
tp173
sS'Nothin On You'
p174
(I10
I4
F103.993
F0.734
F-5.814
F0.688
F0.853
F0.386
F0.0493
tp175
sS'Airplanes'
p176
(I6
I4
F93.033
F0.376
F-4.285
F0.66
F0.867
F0.11
F0.116
tp177
sS'Shut Up And Dance'
p178
(I1
I4
F128.038
F0.619
F-3.804
F0.578
F0.866
F0.00701
F0.0619
tp179
sS'Sail'
p180
(I1
I4
F119.038
F0.251
F-9.582
F0.825
F0.435
F0.452
F0.0568
tp181
sS'Boom Clap'
p182
(I4
I4
F156.996
F0.625
F-7.446
F0.653
F0.525
F0.57
F0.0414
tp183
sS'Hey Soul Sister'
p184
(I1
I4
F97.03
F0.775
F-4.432
F0.675
F0.885
F0.217
F0.0436
tp185
sS'On the Floor'
p186
(I2
I4
F174.152
F0.286
F-6.209
F0.578
F0.574
F0.196
F0.0454
tp187
sS'Lights'
p188
(I8
I4
F144.796
F0.475
F-12.476
F0.693
F0.426
F0.675
F0.302
tp189
sS'Bedrock'
p190
(I8
I4
F148.001
F0.571
F-6.089
F0.732
F0.659
F0.109
F0.225
tp191
sS'Safe and Sound'
p192
(I0
I5
F117.948
F0.773
F-4.838
F0.656
F0.821
F0.000194
F0.0325
tp193
sS'Pompeii'
p194
(I9
I4
F127.429
F0.587
F-6.318
F0.681
F0.715
F0.078
F0.0388
tp195
sS'Rude'
p196
(I1
I4
F144.062
F0.9
F-3.78
F0.743
F0.807
F0.0435
F0.0364
tp197
sS'Whats My Name'
p198
(I2
I4
F100.008
F0.573
F-2.927
F0.705
F0.781
F0.247
F0.0792
tp199
sS'Billionaire'
p200
(I6
I4
F86.776
F0.651
F-6.403
F0.633
F0.673
F0.297
F0.258
tp201
sS'Pop Style'
p202
(I4
I4
F133.072
F0.0566
F-9.979
F0.721
F0.461
F0.173
F0.107
tp203
sS'Rude Boy'
p204
(I3
I4
F173.898
F0.788
F-4.404
F0.564
F0.758
F0.118
F0.186
tp205
sS'Royals'
p206
(I7
I4
F84.778
F0.313
F-9.546
F0.616
F0.432
F0.106
F0.133
tp207
sS'Stay'
p208
(I8
I4
F103.027
F0.376
F-7.948
F0.648
F0.736
F0.0444
F0.0385
tp209
sS'Whistle'
p210
(I0
I4
F103.992
F0.735
F-5.786
F0.754
F0.933
F0.0199
F0.0448
tp211
sS'Low Life'
p212
(I8
I4
F143.974
F0.102
F-7.789
F0.722
F0.331
F0.337
F0.0725
tp213
sS'Stronger'
p214
(I10
I4
F103.98
F0.479
F-7.731
F0.625
F0.726
F0.00728
F0.155
tp215
sS'All The Way Up'
p216
(I10
I5
F117.139
F0.388
F-6.44
F0.536
F0.721
F0.062
F0.386
tp217
sS'I Like It'
p218
(I0
I4
F101.038
F0.51
F-5.719
F0.611
F0.799
F0.202
F0.0641
tp219
sS'Like A G6'
p220
(I7
I5
F165.29
F0.716
F-7.983
F0.352
F0.843
F0.00738
F0.482
tp221
sS'Uptown Funk'
p222
(I0
I4
F114.988
F0.932
F-7.223
F0.856
F0.609
F0.00801
F0.0824
tp223
sS'Post To Be'
p224
(I10
I4
F97.448
F0.717
F-5.655
F0.733
F0.676
F0.0697
F0.0432
tp225
sS'Fuck You'
p226
(I0
I4
F127.43
F0.745
F-5.79
F0.69
F0.834
F0.129
F0.0566
tp227
sS'Latch'
p228
(I1
I4
F122.025
F0.529
F-5.45
F0.502
F0.732
F0.0151
F0.168
tp229
sS'How to Love'
p230
(I11
I4
F153.972
F0.278
F-6.658
F0.673
F0.637
F0.000188
F0.0513
tp231
sS'Oui'
p232
(I5
I4
F119.749
F0.599
F-3.825
F0.715
F0.703
F0.192
F0.0503
tp233
sS'OMG'
p234
(I4
I4
F129.998
F0.324
F-5.81
F0.781
F0.745
F0.198
F0.0332
tp235
sS'Mirrors'
p236
(I5
I4
F76.899
F0.51
F-6.664
F0.574
F0.512
F0.234
F0.0503
tp237
sS'Cake By The Ocean'
p238
(I4
I4
I119
F0.891
F-5.459
F0.771
F0.76
F0.147
F0.0514
tp239
sS'Party Rock Anthem'
p240
(I1
I4
F130.024
F0.345
F-4.153
F0.739
F0.725
F0.0235
F0.165
tp241
sS'Look At Me Now'
p242
(I11
I4
F146.075
F0.577
F-5.745
F0.764
F0.694
F0.0439
F0.189
tp243
sS'Feel This Moment'
p244
(I7
I4
F135.956
F0.541
F-3.632
F0.673
F0.758
F0.039
F0.158
tp245
sS'Ho Hey'
p246
(I0
I4
F79.936
F0.37
F-9.074
F0.685
F0.466
F0.794
F0.0304
tp247
sS'Empire State Of Mind'
p248
(I11
I4
F173.467
F0.824
F-1.56
F0.487
F0.959
F0.0331
F0.403
tp249
sS'Cruise'
p250
(I10
I4
F148.012
F0.869
F-3.342
F0.464
F0.945
F0.0189
F0.0354
tp251
sS'Wrecking Ball'
p252
(I5
I4
F119.81
F0.342
F-6.142
F0.466
F0.403
F0.395
F0.0337
tp253
sS'2 Phones'
p254
(I7
I4
F121.918
F0.547
F-5.267
F0.895
F0.681
F0.157
F0.358
tp255
sS'Cooler Than Me'
p256
(I7
I4
F129.001
F0.766
F-4.065
F0.837
F0.515
F0.103
F0.0793
tp257
sS'How Low'
p258
(I1
I4
F144.004
F0.365
F-6.935
F0.56
F0.494
F0.00293
F0.111
tp259
sS'Some Nights'
p260
(I0
I4
F107.938
F0.401
F-7.045
F0.672
F0.738
F0.0178
F0.0506
tp261
sS'Hey Baby (Drop It to the Floor)'
p262
(I10
I4
F128.021
F0.765
F-3.428
F0.595
F0.913
F0.0435
F0.0884
tp263
sS'What Makes You Beautiful'
p264
(I4
I4
F125.011
F0.876
F-2.451
F0.729
F0.771
F0.00761
F0.0725
tp265
sS'Call Me Maybe'
p266
(I7
I4
F120.053
F0.59
F-6.501
F0.781
F0.599
F0.0109
F0.0436
tp267
sS'Good Life'
p268
(I1
I4
F84.267
F0.461
F-6.871
F0.435
F0.802
F0.00376
F0.324
tp269
sS'The Way'
p270
(I10
I5
F117.139
F0.388
F-6.44
F0.536
F0.721
F0.062
F0.386
tp271
sS'Work From Home'
p272
(I8
I4
F105.017
F0.588
F-5.861
F0.803
F0.585
F0.103
F0.0432
tp273
sS'Just Give Me A Reason'
p274
(I2
I4
F95.002
F0.444
F-7.273
F0.778
F0.547
F0.346
F0.0489
tp275
sS'7 Years'
p276
(I10
I4
F119.992
F0.343
F-5.829
F0.765
F0.473
F0.287
F0.0514
tp277
sS'Take Me To Church'
p278
(I4
I4
F128.945
F0.407
F-5.303
F0.566
F0.664
F0.634
F0.0464
tp279
sS'Lighters'
p280
(I0
I4
F90.135
F0.158
F-8.183
F0.651
F0.671
F0.343
F0.27
tp281
sS'Love The Way You Lie'
p282
(I10
I4
F173.962
F0.608
F-4.957
F0.647
F0.924
F0.25
F0.33
tp283
sS'Glad You Came'
p284
(I7
I4
F126.937
F0.437
F-4.549
F0.698
F0.844
F0.0577
F0.067
tp285
sS'Let It Go'
p286
(I1
I4
F147.175
F0.252
F-10.253
F0.568
F0.293
F0.804
F0.0313
tp287
sS'Came Here To Forget'
p288
(I1
I4
F130.023
F0.49
F-6.874
F0.613
F0.667
F0.356
F0.029
tp289
sS'Down On Me'
p290
(I2
I4
F160.035
F0.646
F-7.653
F0.697
F0.577
F0.0436
F0.127
tp291
sS'Never Forget You'
p292
(I11
I4
F145.992
F0.292
F-5.728
F0.583
F0.732
F0.00312
F0.0457
tp293
sS'Cut It'
p294
(I7
I4
I130
F0.23
F-4.184
F0.875
F0.673
F0.135
F0.0932
tp295
sS'Ride'
p296
(I6
I4
F74.989
F0.58
F-5.355
F0.645
F0.713
F0.00835
F0.0393
tp297
sS'Dirty Money ft. Skylar Grey - Coming Home'
p298
(I7
I4
F168.172
F0.425
F-11.986
F0.503
F0.45
F0.463
F0.247
tp299
sS'Drunk In Love'
p300
(I5
I4
F140.03
F0.398
F-6.902
F0.589
F0.621
F0.00969
F0.0468
tp301
sS'Loyal'
p302
(I1
I4
F99.051
F0.637
F-5.971
F0.845
F0.506
F0.0228
F0.0409
tp303
sS'Tonight Tonight'
p304
(I11
I4
F111.046
F0.64
F-5.804
F0.597
F0.824
F0.0454
F0.0433
tp305
sS'Just The Way You Are'
p306
(I5
I4
F109.013
F0.46
F-5.547
F0.632
F0.845
F0.0136
F0.045
tp307
sS'Stereo Hearts'
p308
(I9
I4
F89.99
F0.791
F-3.293
F0.646
F0.795
F0.0319
F0.0976
tp309
sS'California Gurls'
p310
(I0
I4
F125.014
F0.417
F-3.729
F0.791
F0.754
F0.00446
F0.0569
tp311
sS'Scream & Shout'
p312
(I0
I4
F130.023
F0.482
F-6.834
F0.772
F0.687
F0.0225
F0.0719
tp313
sS'Pillowtalk'
p314
(I11
I4
F124.944
F0.425
F-4.275
F0.584
F0.7
F0.117
F0.0456
tp315
sS'In My Head'
p316
(I0
I4
F95.04
F0.772
F-5.194
F0.689
F0.791
F0.023
F0.053
tp317
sS'Watch Me'
p318
(I8
I4
F139.982
F0.964
F-8.508
F0.825
F0.77
F0.265
F0.134
tp319
sS'Just A Dream'
p320
(I1
I4
I90
F0.0945
F-6.129
F0.554
F0.764
F0.0413
F0.031
tp321
sS'Clarity'
p322
(I8
I4
F127.975
F0.208
F-3.393
F0.514
F0.776
F0.0371
F0.0783
tp323
s.