ccollections
defaultdict
p0
(tRp1
S'Find Your Love'
p2
(I6
I4
F96.081
tp3
sS'Get Lucky'
p4
(I6
I4
F116.047
tp5
sS'Lost Boy'
p6
(I7
I4
F123.994
tp7
sS"Don't Let Me Down"
p8
(I11
I4
F159.803
tp9
sS'Everybody Talks'
p10
(I8
I4
F154.955
tp11
sS'Not Afraid'
p12
(I0
I5
F114.661
tp13
sS"Haven't Met You Yet"
p14
(I8
I4
F122.58
tp15
sS'Lean On'
p16
(I7
I4
F98.007
tp17
sS'Happy'
p18
(I2
I4
F83.096
tp19
sS"Don't You Worry Child"
p20
(I11
I4
F129.042
tp21
sS"I Won't Give Up"
p22
(I4
I3
F136.703
tp23
sS'All of Me'
p24
(I8
I4
F119.93
tp25
sS'Break Free'
p26
(I7
I4
F129.956
tp27
sS'Too Close'
p28
(I11
I4
F126.07
tp29
sS'Ni**as In Paris'
p30
(I1
I5
F139.998
tp31
sS'Somebody That I Used to Know'
p32
(I0
I4
F129.063
tp33
sS'Carry Out'
p34
(I10
I4
F95.988
tp35
sS'Young, Wild & Free'
p36
(I0
I4
F95.078
tp37
sS'Mercy'
p38
(I11
I4
F148.294
tp39
sS'Just Like Fire'
p40
(I7
I4
F162.958
tp41
sS'679'
p42
(I7
I4
F190.05
tp43
sS'Black Widow ft. Rita Ora'
p44
(I3
I4
F164.028
tp45
sS'H.O.L.Y.'
p46
(I7
I4
F78.003
tp47
sS'Fire Flies'
p48
(I7
I4
F137.177
tp49
sS'Pumped Up Kicks'
p50
(I5
I4
F127.975
tp51
sS'Breakeven'
p52
(I10
I4
F94.023
tp53
sS'Summer'
p54
(I1
I4
F146.316
tp55
sS'Turn Down For What'
p56
(I1
I4
F100.014
tp57
sS'Black and Yellow'
p58
(I2
I4
F164.02
tp59
sS'Telephone'
p60
(I2
I4
F123.009
tp61
sS'Stay With Me'
p62
(I0
I4
F85.014
tp63
sS'Say Something'
p64
(I2
I3
F141.284
tp65
sS'Suit & Tie'
p66
(I11
I4
F101.985
tp67
sS'Chandelier'
p68
(I1
I5
F117.089
tp69
sS'Super Bass'
p70
(I11
I4
F127.01
tp71
sS'Cups'
p72
(I0
I4
F129.966
tp73
sS'Come & Get It'
p74
(I7
I4
F80.142
tp75
sS'Panda'
p76
(I10
I4
F145.22
tp77
sS'Timber'
p78
(I11
I4
F129.992
tp79
sS'Give Me Everything'
p80
(I8
I4
F129.023
tp81
sS'I Love It'
p82
(I8
I4
F125.927
tp83
sS'Blurred Lines'
p84
(I7
I4
F120.002
tp85
sS'Good Time'
p86
(I7
I4
F94.605
tp87
sS'Bailando'
p88
(I7
I4
F90.937
tp89
sS"Can't Hold Us"
p90
(I2
I4
F146.078
tp91
sS'Best Day of My Life'
p92
(I2
I4
F100.016
tp93
sS'Dynamite'
p94
(I9
I4
F105.055
tp95
sS'Let Her Go'
p96
(I7
I4
F74.897
tp97
sS'Fight Song'
p98
(I7
I4
F175.924
tp99
sS'Alejandro'
p100
(I11
I4
F98.986
tp101
sS'DJ Got Us Fallin In Love'
p102
(I7
I4
F119.932
tp103
sS'Close'
p104
(I6
I4
F124.012
tp105
sS'Fuckin Perfect'
p106
(I2
I4
F182.015
tp107
sS'Locked Away'
p108
(I1
I5
F121.928
tp109
sS'I Got A Feelin'
p110
(I2
I4
F112.117
tp111
sS"Don't Mind"
p112
(I1
I4
F100.017
tp113
sS'The Edge of Glory'
p114
(I9
I4
F127.973
tp115
sS'Your Love Is My Drug'
p116
(I1
I4
F120.044
tp117
sS'Photograph'
p118
(I4
I4
F107.989
tp119
sS'Sexy Chick'
p120
(I11
I4
F129.999
tp121
sS'Thrift Shop'
p122
(I6
I4
F94.992
tp123
sS'All About That Bass'
p124
(I9
I4
F134.064
tp125
sS'Moves Like Jagger'
p126
(I11
I4
F128.03
tp127
sS'Work'
p128
(I11
I4
F91.296
tp129
sS'Too Good'
p130
(I7
I4
F117.984
tp131
sS'As Long As You Love Me'
p132
(I3
I4
F135.989
tp133
sS"Can't Feel My Face"
p134
(I9
I4
F107.972
tp135
sS'Habits'
p136
(I6
I5
F138.293
tp137
sS'Bang Bang'
p138
(I0
I4
F150.058
tp139
sS'Break Your Heart'
p140
(I8
I4
F122.025
tp141
sS'Holy Grail'
p142
(I2
I4
F145.075
tp143
sS'Jealous'
p144
(I1
I3
F128.532
tp145
sS'Wake Me Up'
p146
(I2
I4
F124.102
tp147
sS'Tik Tok'
p148
(I2
I4
F120.032
tp149
sS'Me, Myself & I'
p150
(I0
I4
F111.996
tp151
sS'Love me'
p152
(I8
I4
F100.023
tp153
sS'Harlem Shake'
p154
(I0
I4
F137.825
tp155
sS'Turn Me On'
p156
(I1
I4
F102.924
tp157
sS'Worth It'
p158
(I8
I4
F99.987
tp159
sS'The Show Goes On'
p160
(I7
I4
F143.067
tp161
sS'Replay'
p162
(I9
I4
F91.031
tp163
sS'Cheerleader'
p164
(I4
I4
F118.016
tp165
sS'My Songs Know What You Did In The Dark'
p166
(I9
I4
F152.011
tp167
sS'Stitches'
p168
(I10
I4
F74.986
tp169
sS'Till the World Ends'
p170
(I8
I4
F131.951
tp171
sS"Honey, I'm Good"
p172
(I9
I4
F122.025
tp173
sS'Nothin On You'
p174
(I10
I4
F103.993
tp175
sS'Airplanes'
p176
(I6
I4
F93.033
tp177
sS'Shut Up And Dance'
p178
(I1
I4
F128.038
tp179
sS'Sail'
p180
(I1
I4
F119.038
tp181
sS'Boom Clap'
p182
(I4
I4
F156.996
tp183
sS'Hey Soul Sister'
p184
(I1
I4
F97.03
tp185
sS'On the Floor'
p186
(I2
I4
F174.152
tp187
sS'Lights'
p188
(I8
I4
F144.796
tp189
sS'Bedrock'
p190
(I8
I4
F148.001
tp191
sS'Safe and Sound'
p192
(I0
I5
F117.948
tp193
sS'Pompeii'
p194
(I9
I4
F127.429
tp195
sS'Rude'
p196
(I1
I4
F144.062
tp197
sS'Whats My Name'
p198
(I2
I4
F100.008
tp199
sS'Billionaire'
p200
(I6
I4
F86.776
tp201
sS'Pop Style'
p202
(I4
I4
F133.072
tp203
sS'Rude Boy'
p204
(I3
I4
F173.898
tp205
sS'Royals'
p206
(I7
I4
F84.778
tp207
sS'Stay'
p208
(I8
I4
F103.027
tp209
sS'Whistle'
p210
(I0
I4
F103.992
tp211
sS'Low Life'
p212
(I8
I4
F143.974
tp213
sS'Stronger'
p214
(I10
I4
F103.98
tp215
sS'All The Way Up'
p216
(I10
I5
F117.139
tp217
sS'I Like It'
p218
(I0
I4
F101.038
tp219
sS'Like A G6'
p220
(I7
I5
F165.29
tp221
sS'Uptown Funk'
p222
(I0
I4
F114.988
tp223
sS'Post To Be'
p224
(I10
I4
F97.448
tp225
sS'Fuck You'
p226
(I0
I4
F127.43
tp227
sS'Latch'
p228
(I1
I4
F122.025
tp229
sS'How to Love'
p230
(I11
I4
F153.972
tp231
sS'Oui'
p232
(I5
I4
F119.749
tp233
sS'OMG'
p234
(I4
I4
F129.998
tp235
sS'Mirrors'
p236
(I5
I4
F76.899
tp237
sS'Cake By The Ocean'
p238
(I4
I4
I119
tp239
sS'Party Rock Anthem'
p240
(I1
I4
F130.024
tp241
sS'Look At Me Now'
p242
(I11
I4
F146.075
tp243
sS'Feel This Moment'
p244
(I7
I4
F135.956
tp245
sS'Ho Hey'
p246
(I0
I4
F79.936
tp247
sS'Empire State Of Mind'
p248
(I11
I4
F173.467
tp249
sS'Cruise'
p250
(I10
I4
F148.012
tp251
sS'Wrecking Ball'
p252
(I5
I4
F119.81
tp253
sS'2 Phones'
p254
(I7
I4
F121.918
tp255
sS'Cooler Than Me'
p256
(I7
I4
F129.001
tp257
sS'How Low'
p258
(I1
I4
F144.004
tp259
sS'Some Nights'
p260
(I0
I4
F107.938
tp261
sS'Hey Baby (Drop It to the Floor)'
p262
(I10
I4
F128.021
tp263
sS'What Makes You Beautiful'
p264
(I4
I4
F125.011
tp265
sS'Call Me Maybe'
p266
(I7
I4
F120.053
tp267
sS'Good Life'
p268
(I1
I4
F84.267
tp269
sS'The Way'
p270
(I10
I5
F117.139
tp271
sS'Work From Home'
p272
(I8
I4
F105.017
tp273
sS'Just Give Me A Reason'
p274
(I2
I4
F95.002
tp275
sS'7 Years'
p276
(I10
I4
F119.992
tp277
sS'Take Me To Church'
p278
(I4
I4
F128.945
tp279
sS'Lighters'
p280
(I0
I4
F90.135
tp281
sS'Love The Way You Lie'
p282
(I10
I4
F173.962
tp283
sS'Glad You Came'
p284
(I7
I4
F126.937
tp285
sS'Let It Go'
p286
(I1
I4
F147.175
tp287
sS'Came Here To Forget'
p288
(I1
I4
F130.023
tp289
sS'Down On Me'
p290
(I2
I4
F160.035
tp291
sS'Never Forget You'
p292
(I11
I4
F145.992
tp293
sS'Cut It'
p294
(I7
I4
I130
tp295
sS'Ride'
p296
(I6
I4
F74.989
tp297
sS'Dirty Money ft. Skylar Grey - Coming Home'
p298
(I7
I4
F168.172
tp299
sS'Drunk In Love'
p300
(I5
I4
F140.03
tp301
sS'Loyal'
p302
(I1
I4
F99.051
tp303
sS'Tonight Tonight'
p304
(I11
I4
F111.046
tp305
sS'Just The Way You Are'
p306
(I5
I4
F109.013
tp307
sS'Stereo Hearts'
p308
(I9
I4
F89.99
tp309
sS'California Gurls'
p310
(I0
I4
F125.014
tp311
sS'Scream & Shout'
p312
(I0
I4
F130.023
tp313
sS'Pillowtalk'
p314
(I11
I4
F124.944
tp315
sS'In My Head'
p316
(I0
I4
F95.04
tp317
sS'Watch Me'
p318
(I8
I4
F139.982
tp319
sS'Just A Dream'
p320
(I1
I4
I90
tp321
sS'Clarity'
p322
(I8
I4
F127.975
tp323
s.
